target datalayout = "e-m:e-p270:32:32-p271:32:32-p272:64:64-i64:64-i128:128-f80:128-n8:16:32:64-S128"
target triple = "x86_64-pc-linux-gnu"

@stderr = external global ptr, align 8

; Function Attrs: nounwind uwtable
define internal void @readx509(ptr noundef %0, i32 noundef %1) #0 {
  %3 = alloca ptr, align 8
  %4 = alloca i32, align 4
  %5 = alloca ptr, align 8
  %6 = alloca ptr, align 8
  store ptr %0, ptr %3, align 8, !tbaa !11
  store i32 %1, ptr %4, align 4, !tbaa !4
  call void @llvm.lifetime.start.p0(i64 8, ptr %5) #6
  store ptr null, ptr %5, align 8, !tbaa !32
  call void @llvm.lifetime.start.p0(i64 8, ptr %6) #6
  %7 = load ptr, ptr %3, align 8, !tbaa !11
  %8 = load i32, ptr %4, align 4, !tbaa !4
  %9 = call ptr @BIO_new_mem_buf(ptr noundef %7, i32 noundef %8)
  store ptr %9, ptr %6, align 8, !tbaa !34
  %10 = load ptr, ptr %6, align 8, !tbaa !34
  %11 = icmp eq ptr %10, null
  br i1 %11, label %12, label %14

12:                                               ; preds = %2
  %13 = load ptr, ptr @stderr, align 8, !tbaa !20
  call void @ERR_print_errors_fp(ptr noundef %13)
  call void @exit(i32 noundef 1) #8
  unreachable

14:                                               ; preds = %2
  %15 = load ptr, ptr %6, align 8, !tbaa !34
  %16 = call ptr @PEM_read_bio_X509(ptr noundef %15, ptr noundef %5, ptr noundef null, ptr noundef null)
  %17 = load ptr, ptr %5, align 8, !tbaa !32
  %18 = icmp eq ptr %17, null
  br i1 %18, label %19, label %21

19:                                               ; preds = %14
  %20 = load ptr, ptr @stderr, align 8, !tbaa !20
  call void @ERR_print_errors_fp(ptr noundef %20)
  call void @exit(i32 noundef 1) #8
  unreachable

21:                                               ; preds = %14
  %22 = load ptr, ptr %5, align 8, !tbaa !32
  call void @X509_free(ptr noundef %22)
  %23 = load ptr, ptr %6, align 8, !tbaa !34
  %24 = call i32 @BIO_free(ptr noundef %23)
  call void @llvm.lifetime.end.p0(i64 8, ptr %6) #6
  call void @llvm.lifetime.end.p0(i64 8, ptr %5) #6
  ret void
}