; Function Attrs: nounwind uwtable
define internal fastcc void @readx509(ptr noundef nonnull %0, i32 noundef %1) unnamed_addr #0 {
  %3 = alloca ptr, align 8
  call void @llvm.lifetime.start.p0(i64 8, ptr nonnull %3) #9
  store ptr null, ptr %3, align 8, !tbaa !30
  %4 = tail call ptr @BIO_new_mem_buf(ptr noundef nonnull %0, i32 noundef %1) #9
  %5 = icmp eq ptr %4, null
  br i1 %5, label %6, label %8

6:                                                ; preds = %2
  %7 = load ptr, ptr @stderr, align 8, !tbaa !28
  tail call void @ERR_print_errors_fp(ptr noundef %7) #9
  tail call void @exit(i32 noundef 1) #11
  unreachable

8:                                                ; preds = %2
  %9 = call ptr @PEM_read_bio_X509(ptr noundef nonnull %4, ptr noundef nonnull %3, ptr noundef null, ptr noundef null) #9
  %10 = load ptr, ptr %3, align 8, !tbaa !30
  %11 = icmp eq ptr %10, null
  br i1 %11, label %12, label %14

12:                                               ; preds = %8
  %13 = load ptr, ptr @stderr, align 8, !tbaa !28
  call void @ERR_print_errors_fp(ptr noundef %13) #9
  call void @exit(i32 noundef 1) #11
  unreachable

14:                                               ; preds = %8
  call void @X509_free(ptr noundef nonnull %10) #9
  %15 = call i32 @BIO_free(ptr noundef nonnull %4) #9
  call void @llvm.lifetime.end.p0(i64 8, ptr nonnull %3) #9
  ret void
}